target datalayout = "e-m:e-p270:32:32-p271:32:32-p272:64:64-i64:64-i128:128-f80:128-n8:16:32:64-S128"
target triple = "x86_64-pc-linux-gnu"

%struct.AVFormatContext = type { ptr, ptr, ptr, ptr, ptr, i32, i32, ptr, i32, ptr, i32, ptr, ptr, i64, i64, i64, i32, i32, i32, i64, i64, ptr, i32, i32, ptr, i32, i32, i32, i32, ptr, i64, i32, i32, %struct.AVIOInterruptCB, i32, i32, i32, i32, i64, i32, i32, i32, i32, i32, i32, i32, i32, i32, i32, i32, i32, i64, i32, i32, i32, i32, i32, ptr, ptr, ptr, ptr, i32, ptr, ptr, ptr, ptr, i32, ptr, ptr, i64, ptr, ptr, ptr, i64 }
%struct.AVIOInterruptCB = type { ptr, ptr }
%struct.DASHContext = type { ptr, ptr, ptr, i32, i32, i32, i64, i64, i32, i32, i32, i32, ptr, i32, i64, i64, [100 x i8], i64, i64, [1024 x i8], ptr, ptr, ptr, ptr, ptr, ptr, ptr, i32, ptr, i32, i32, ptr, ptr, ptr, i32, i64, i32, ptr, i32, i32, i32, i32, i32, i32, i32, i32, i32, i32, i64, i64, i32, i64, i32, %struct.AVRational, %struct.AVRational, i64 }
%struct.AVRational = type { i32, i32 }
%struct.OutputStream = type { ptr, i32, i32, ptr, ptr, ptr, i32, [1024 x i8], i64, i64, i32, i32, i32, i32, i64, i64, i64, ptr, i64, i64, i64, i64, i64, i32, i32, i32, i32, ptr, ptr, ptr, ptr, ptr, [100 x i8], i32, [1024 x i8], [1024 x i8], [1024 x i8], double, %struct.AVProducerReferenceTime, [100 x i8], i32, i64, i32, i32, i64, %struct.AVRational, i32 }
%struct.AVProducerReferenceTime = type { i64, i32 }
%struct.AdaptationSet = type { i32, ptr, i64, i64, i32, i32, ptr, %struct.AVRational, %struct.AVRational, i32, i64, i32, i32, i32, %struct.AVRational, i32 }

; Function Attrs: nounwind uwtable
define internal void @dash_free(ptr noundef %0) #0 {
  %2 = alloca ptr, align 8
  %3 = alloca ptr, align 8
  %4 = alloca i32, align 4
  %5 = alloca i32, align 4
  %6 = alloca i32, align 4
  %7 = alloca ptr, align 8
  store ptr %0, ptr %2, align 8, !tbaa !4
  call void @llvm.lifetime.start.p0(i64 8, ptr %3) #13
  %8 = load ptr, ptr %2, align 8, !tbaa !4
  %9 = getelementptr inbounds nuw %struct.AVFormatContext, ptr %8, i32 0, i32 3
  %10 = load ptr, ptr %9, align 8, !tbaa !9
  store ptr %10, ptr %3, align 8, !tbaa !26
  call void @llvm.lifetime.start.p0(i64 4, ptr %4) #13
  call void @llvm.lifetime.start.p0(i64 4, ptr %5) #13
  %11 = load ptr, ptr %3, align 8, !tbaa !26
  %12 = getelementptr inbounds nuw %struct.DASHContext, ptr %11, i32 0, i32 2
  %13 = load ptr, ptr %12, align 8, !tbaa !55
  %14 = icmp ne ptr %13, null
  br i1 %14, label %15, label %45

15:                                               ; preds = %1
  store i32 0, ptr %4, align 4, !tbaa !28
  br label %16

16:                                               ; preds = %37, %15
  %17 = load i32, ptr %4, align 4, !tbaa !28
  %18 = load ptr, ptr %3, align 8, !tbaa !26
  %19 = getelementptr inbounds nuw %struct.DASHContext, ptr %18, i32 0, i32 3
  %20 = load i32, ptr %19, align 8, !tbaa !177
  %21 = icmp slt i32 %17, %20
  br i1 %21, label %22, label %40

22:                                               ; preds = %16
  %23 = load ptr, ptr %3, align 8, !tbaa !26
  %24 = getelementptr inbounds nuw %struct.DASHContext, ptr %23, i32 0, i32 2
  %25 = load ptr, ptr %24, align 8, !tbaa !55
  %26 = load i32, ptr %4, align 4, !tbaa !28
  %27 = sext i32 %26 to i64
  %28 = getelementptr inbounds %struct.AdaptationSet, ptr %25, i64 %27
  %29 = getelementptr inbounds nuw %struct.AdaptationSet, ptr %28, i32 0, i32 6
  call void @av_dict_free(ptr noundef %29)
  %30 = load ptr, ptr %3, align 8, !tbaa !26
  %31 = getelementptr inbounds nuw %struct.DASHContext, ptr %30, i32 0, i32 2
  %32 = load ptr, ptr %31, align 8, !tbaa !55
  %33 = load i32, ptr %4, align 4, !tbaa !28
  %34 = sext i32 %33 to i64
  %35 = getelementptr inbounds %struct.AdaptationSet, ptr %32, i64 %34
  %36 = getelementptr inbounds nuw %struct.AdaptationSet, ptr %35, i32 0, i32 1
  call void @av_freep(ptr noundef %36)
  br label %37

37:                                               ; preds = %22
  %38 = load i32, ptr %4, align 4, !tbaa !28
  %39 = add nsw i32 %38, 1
  store i32 %39, ptr %4, align 4, !tbaa !28
  br label %16, !llvm.loop !178

40:                                               ; preds = %16
  %41 = load ptr, ptr %3, align 8, !tbaa !26
  %42 = getelementptr inbounds nuw %struct.DASHContext, ptr %41, i32 0, i32 2
  call void @av_freep(ptr noundef %42)
  %43 = load ptr, ptr %3, align 8, !tbaa !26
  %44 = getelementptr inbounds nuw %struct.DASHContext, ptr %43, i32 0, i32 3
  store i32 0, ptr %44, align 8, !tbaa !177
  br label %45

45:                                               ; preds = %40, %1
  %46 = load ptr, ptr %3, align 8, !tbaa !26
  %47 = getelementptr inbounds nuw %struct.DASHContext, ptr %46, i32 0, i32 12
  %48 = load ptr, ptr %47, align 8, !tbaa !30
  %49 = icmp ne ptr %48, null
  br i1 %49, label %51, label %50

50:                                               ; preds = %45
  store i32 1, ptr %6, align 4
  br label %152

51:                                               ; preds = %45
  store i32 0, ptr %4, align 4, !tbaa !28
  br label %52

52:                                               ; preds = %134, %51
  %53 = load i32, ptr %4, align 4, !tbaa !28
  %54 = load ptr, ptr %2, align 8, !tbaa !4
  %55 = getelementptr inbounds nuw %struct.AVFormatContext, ptr %54, i32 0, i32 6
  %56 = load i32, ptr %55, align 4, !tbaa !29
  %57 = icmp ult i32 %53, %56
  br i1 %57, label %58, label %137

58:                                               ; preds = %52
  call void @llvm.lifetime.start.p0(i64 8, ptr %7) #13
  %59 = load ptr, ptr %3, align 8, !tbaa !26
  %60 = getelementptr inbounds nuw %struct.DASHContext, ptr %59, i32 0, i32 12
  %61 = load ptr, ptr %60, align 8, !tbaa !30
  %62 = load i32, ptr %4, align 4, !tbaa !28
  %63 = sext i32 %62 to i64
  %64 = getelementptr inbounds %struct.OutputStream, ptr %61, i64 %63
  store ptr %64, ptr %7, align 8, !tbaa !35
  %65 = load ptr, ptr %7, align 8, !tbaa !35
  %66 = getelementptr inbounds nuw %struct.OutputStream, ptr %65, i32 0, i32 0
  %67 = load ptr, ptr %66, align 8, !tbaa !36
  %68 = icmp ne ptr %67, null
  br i1 %68, label %69, label %94

69:                                               ; preds = %58
  %70 = load ptr, ptr %7, align 8, !tbaa !35
  %71 = getelementptr inbounds nuw %struct.OutputStream, ptr %70, i32 0, i32 0
  %72 = load ptr, ptr %71, align 8, !tbaa !36
  %73 = getelementptr inbounds nuw %struct.AVFormatContext, ptr %72, i32 0, i32 4
  %74 = load ptr, ptr %73, align 8, !tbaa !117
  %75 = icmp ne ptr %74, null
  br i1 %75, label %76, label %94

76:                                               ; preds = %69
  %77 = load ptr, ptr %3, align 8, !tbaa !26
  %78 = getelementptr inbounds nuw %struct.DASHContext, ptr %77, i32 0, i32 11
  %79 = load i32, ptr %78, align 4, !tbaa !113
  %80 = icmp ne i32 %79, 0
  br i1 %80, label %86, label %81

81:                                               ; preds = %76
  %82 = load ptr, ptr %7, align 8, !tbaa !35
  %83 = getelementptr inbounds nuw %struct.OutputStream, ptr %82, i32 0, i32 0
  %84 = load ptr, ptr %83, align 8, !tbaa !36
  %85 = getelementptr inbounds nuw %struct.AVFormatContext, ptr %84, i32 0, i32 4
  call void @ffio_free_dyn_buf(ptr noundef %85)
  br label %93

86:                                               ; preds = %76
  %87 = load ptr, ptr %7, align 8, !tbaa !35
  %88 = getelementptr inbounds nuw %struct.OutputStream, ptr %87, i32 0, i32 0
  %89 = load ptr, ptr %88, align 8, !tbaa !36
  %90 = getelementptr inbounds nuw %struct.AVFormatContext, ptr %89, i32 0, i32 4
  %91 = load ptr, ptr %90, align 8, !tbaa !117
  %92 = call i32 @avio_close(ptr noundef %91)
  br label %93

93:                                               ; preds = %86, %81
  br label %94

94:                                               ; preds = %93, %69, %58
  %95 = load ptr, ptr %2, align 8, !tbaa !4
  %96 = load ptr, ptr %7, align 8, !tbaa !35
  %97 = getelementptr inbounds nuw %struct.OutputStream, ptr %96, i32 0, i32 3
  %98 = call i32 @ff_format_io_close(ptr noundef %95, ptr noundef %97)
  %99 = load ptr, ptr %7, align 8, !tbaa !35
  %100 = getelementptr inbounds nuw %struct.OutputStream, ptr %99, i32 0, i32 0
  %101 = load ptr, ptr %100, align 8, !tbaa !36
  call void @avformat_free_context(ptr noundef %101)
  %102 = load ptr, ptr %7, align 8, !tbaa !35
  %103 = getelementptr inbounds nuw %struct.OutputStream, ptr %102, i32 0, i32 5
  call void @avcodec_free_context(ptr noundef %103)
  %104 = load ptr, ptr %7, align 8, !tbaa !35
  %105 = getelementptr inbounds nuw %struct.OutputStream, ptr %104, i32 0, i32 4
  %106 = load ptr, ptr %105, align 8, !tbaa !82
  call void @av_parser_close(ptr noundef %106)
  store i32 0, ptr %5, align 4, !tbaa !28
  br label %107

107:                                              ; preds = %121, %94
  %108 = load i32, ptr %5, align 4, !tbaa !28
  %109 = load ptr, ptr %7, align 8, !tbaa !35
  %110 = getelementptr inbounds nuw %struct.OutputStream, ptr %109, i32 0, i32 11
  %111 = load i32, ptr %110, align 4, !tbaa !108
  %112 = icmp slt i32 %108, %111
  br i1 %112, label %113, label %124

113:                                              ; preds = %107
  %114 = load ptr, ptr %7, align 8, !tbaa !35
  %115 = getelementptr inbounds nuw %struct.OutputStream, ptr %114, i32 0, i32 17
  %116 = load ptr, ptr %115, align 8, !tbaa !179
  %117 = load i32, ptr %5, align 4, !tbaa !28
  %118 = sext i32 %117 to i64
  %119 = getelementptr inbounds ptr, ptr %116, i64 %118
  %120 = load ptr, ptr %119, align 8, !tbaa !180
  call void @av_free(ptr noundef %120)
  br label %121

121:                                              ; preds = %113
  %122 = load i32, ptr %5, align 4, !tbaa !28
  %123 = add nsw i32 %122, 1
  store i32 %123, ptr %5, align 4, !tbaa !28
  br label %107, !llvm.loop !182

124:                                              ; preds = %107
  %125 = load ptr, ptr %7, align 8, !tbaa !35
  %126 = getelementptr inbounds nuw %struct.OutputStream, ptr %125, i32 0, i32 17
  %127 = load ptr, ptr %126, align 8, !tbaa !179
  call void @av_free(ptr noundef %127)
  %128 = load ptr, ptr %7, align 8, !tbaa !35
  %129 = getelementptr inbounds nuw %struct.OutputStream, ptr %128, i32 0, i32 29
  call void @av_freep(ptr noundef %129)
  %130 = load ptr, ptr %7, align 8, !tbaa !35
  %131 = getelementptr inbounds nuw %struct.OutputStream, ptr %130, i32 0, i32 30
  call void @av_freep(ptr noundef %131)
  %132 = load ptr, ptr %7, align 8, !tbaa !35
  %133 = getelementptr inbounds nuw %struct.OutputStream, ptr %132, i32 0, i32 31
  call void @av_freep(ptr noundef %133)
  call void @llvm.lifetime.end.p0(i64 8, ptr %7) #13
  br label %134

134:                                              ; preds = %124
  %135 = load i32, ptr %4, align 4, !tbaa !28
  %136 = add nsw i32 %135, 1
  store i32 %136, ptr %4, align 4, !tbaa !28
  br label %52, !llvm.loop !183

137:                                              ; preds = %52
  %138 = load ptr, ptr %3, align 8, !tbaa !26
  %139 = getelementptr inbounds nuw %struct.DASHContext, ptr %138, i32 0, i32 12
  call void @av_freep(ptr noundef %139)
  %140 = load ptr, ptr %2, align 8, !tbaa !4
  %141 = load ptr, ptr %3, align 8, !tbaa !26
  %142 = getelementptr inbounds nuw %struct.DASHContext, ptr %141, i32 0, i32 31
  %143 = call i32 @ff_format_io_close(ptr noundef %140, ptr noundef %142)
  %144 = load ptr, ptr %2, align 8, !tbaa !4
  %145 = load ptr, ptr %3, align 8, !tbaa !26
  %146 = getelementptr inbounds nuw %struct.DASHContext, ptr %145, i32 0, i32 32
  %147 = call i32 @ff_format_io_close(ptr noundef %144, ptr noundef %146)
  %148 = load ptr, ptr %2, align 8, !tbaa !4
  %149 = load ptr, ptr %3, align 8, !tbaa !26
  %150 = getelementptr inbounds nuw %struct.DASHContext, ptr %149, i32 0, i32 33
  %151 = call i32 @ff_format_io_close(ptr noundef %148, ptr noundef %150)
  store i32 0, ptr %6, align 4
  br label %152

152:                                              ; preds = %137, %50
  call void @llvm.lifetime.end.p0(i64 4, ptr %5) #13
  call void @llvm.lifetime.end.p0(i64 4, ptr %4) #13
  call void @llvm.lifetime.end.p0(i64 8, ptr %3) #13
  %153 = load i32, ptr %6, align 4
  switch i32 %153, label %155 [
    i32 0, label %154
    i32 1, label %154
  ]

154:                                              ; preds = %152, %152
  ret void

155:                                              ; preds = %152
  unreachable
}