; Function Attrs: nounwind uwtable
define internal void @dash_free(ptr noundef %0) #0 {
  %2 = getelementptr inbounds nuw i8, ptr %0, i64 24
  %3 = load ptr, ptr %2, align 8, !tbaa !24
  %4 = getelementptr inbounds nuw i8, ptr %3, i64 16
  %5 = load ptr, ptr %4, align 8, !tbaa !52
  %.not = icmp eq ptr %5, null
  br i1 %.not, label %16, label %.preheader49

.preheader49:                                     ; preds = %1
  %6 = getelementptr inbounds nuw i8, ptr %3, i64 24
  %7 = load i32, ptr %6, align 8, !tbaa !152
  %8 = icmp sgt i32 %7, 0
  br i1 %8, label %.lr.ph, label %._crit_edge

.lr.ph:                                           ; preds = %.preheader49, %.lr.ph
  %indvars.iv = phi i64 [ %indvars.iv.next, %.lr.ph ], [ 0, %.preheader49 ]
  %9 = load ptr, ptr %4, align 8, !tbaa !52
  %10 = getelementptr inbounds nuw %struct.AdaptationSet, ptr %9, i64 %indvars.iv, i32 6
  tail call void @av_dict_free(ptr noundef nonnull %10) #15
  %11 = load ptr, ptr %4, align 8, !tbaa !52
  %12 = getelementptr inbounds nuw %struct.AdaptationSet, ptr %11, i64 %indvars.iv, i32 1
  tail call void @av_freep(ptr noundef nonnull %12) #15
  %indvars.iv.next = add nuw nsw i64 %indvars.iv, 1
  %13 = load i32, ptr %6, align 8, !tbaa !152
  %14 = sext i32 %13 to i64
  %15 = icmp slt i64 %indvars.iv.next, %14
  br i1 %15, label %.lr.ph, label %._crit_edge, !llvm.loop !201

._crit_edge:                                      ; preds = %.lr.ph, %.preheader49
  tail call void @av_freep(ptr noundef nonnull %4) #15
  store i32 0, ptr %6, align 8, !tbaa !152
  br label %16

16:                                               ; preds = %._crit_edge, %1
  %17 = getelementptr inbounds nuw i8, ptr %3, i64 72
  %18 = load ptr, ptr %17, align 8, !tbaa !25
  %.not45 = icmp eq ptr %18, null
  br i1 %.not45, label %66, label %.preheader

.preheader:                                       ; preds = %16
  %19 = getelementptr inbounds nuw i8, ptr %0, i64 44
  %20 = load i32, ptr %19, align 4, !tbaa !4
  %.not58 = icmp eq i32 %20, 0
  br i1 %.not58, label %._crit_edge57, label %.lr.ph56

.lr.ph56:                                         ; preds = %.preheader
  %21 = getelementptr inbounds nuw i8, ptr %3, i64 68
  br label %22

22:                                               ; preds = %.lr.ph56, %._crit_edge54
  %indvars.iv63 = phi i64 [ 0, %.lr.ph56 ], [ %indvars.iv.next64, %._crit_edge54 ]
  %23 = load ptr, ptr %17, align 8, !tbaa !25
  %24 = getelementptr inbounds nuw %struct.OutputStream, ptr %23, i64 %indvars.iv63
  %25 = load ptr, ptr %24, align 8, !tbaa !30
  %.not46 = icmp eq ptr %25, null
  br i1 %.not46, label %34, label %26

26:                                               ; preds = %22
  %27 = getelementptr inbounds nuw i8, ptr %25, i64 32
  %28 = load ptr, ptr %27, align 8, !tbaa !114
  %.not47 = icmp eq ptr %28, null
  br i1 %.not47, label %34, label %29

29:                                               ; preds = %26
  %30 = load i32, ptr %21, align 4, !tbaa !42
  %.not48 = icmp eq i32 %30, 0
  br i1 %.not48, label %31, label %32

31:                                               ; preds = %29
  tail call void @ffio_free_dyn_buf(ptr noundef nonnull %27) #15
  br label %34

32:                                               ; preds = %29
  %33 = tail call i32 @avio_close(ptr noundef nonnull %28) #15
  br label %34

34:                                               ; preds = %31, %32, %26, %22
  %35 = getelementptr inbounds nuw i8, ptr %24, i64 16
  %36 = tail call i32 @ff_format_io_close(ptr noundef nonnull %0, ptr noundef nonnull %35) #15
  %37 = load ptr, ptr %24, align 8, !tbaa !30
  tail call void @avformat_free_context(ptr noundef %37) #15
  %38 = getelementptr inbounds nuw i8, ptr %24, i64 32
  tail call void @avcodec_free_context(ptr noundef nonnull %38) #15
  %39 = getelementptr inbounds nuw i8, ptr %24, i64 24
  %40 = load ptr, ptr %39, align 8, !tbaa !87
  tail call void @av_parser_close(ptr noundef %40) #15
  %41 = getelementptr inbounds nuw i8, ptr %24, i64 1092
  %42 = load i32, ptr %41, align 4, !tbaa !108
  %43 = icmp sgt i32 %42, 0
  br i1 %43, label %.lr.ph53, label %._crit_edge54

.lr.ph53:                                         ; preds = %34
  %44 = getelementptr inbounds nuw i8, ptr %24, i64 1128
  br label %45

45:                                               ; preds = %.lr.ph53, %45
  %indvars.iv60 = phi i64 [ 0, %.lr.ph53 ], [ %indvars.iv.next61, %45 ]
  %46 = load ptr, ptr %44, align 8, !tbaa !123
  %47 = getelementptr inbounds nuw ptr, ptr %46, i64 %indvars.iv60
  %48 = load ptr, ptr %47, align 8, !tbaa !124
  tail call void @av_free(ptr noundef %48) #15
  %indvars.iv.next61 = add nuw nsw i64 %indvars.iv60, 1
  %49 = load i32, ptr %41, align 4, !tbaa !108
  %50 = sext i32 %49 to i64
  %51 = icmp slt i64 %indvars.iv.next61, %50
  br i1 %51, label %45, label %._crit_edge54, !llvm.loop !202

._crit_edge54:                                    ; preds = %45, %34
  %52 = getelementptr inbounds nuw i8, ptr %24, i64 1128
  %53 = load ptr, ptr %52, align 8, !tbaa !123
  tail call void @av_free(ptr noundef %53) #15
  %54 = getelementptr inbounds nuw i8, ptr %24, i64 1208
  tail call void @av_freep(ptr noundef nonnull %54) #15
  %55 = getelementptr inbounds nuw i8, ptr %24, i64 1216
  tail call void @av_freep(ptr noundef nonnull %55) #15
  %56 = getelementptr inbounds nuw i8, ptr %24, i64 1224
  tail call void @av_freep(ptr noundef nonnull %56) #15
  %indvars.iv.next64 = add nuw nsw i64 %indvars.iv63, 1
  %57 = load i32, ptr %19, align 4, !tbaa !4
  %58 = zext i32 %57 to i64
  %59 = icmp samesign ult i64 %indvars.iv.next64, %58
  br i1 %59, label %22, label %._crit_edge57, !llvm.loop !203

._crit_edge57:                                    ; preds = %._crit_edge54, %.preheader
  tail call void @av_freep(ptr noundef nonnull %17) #15
  %60 = getelementptr inbounds nuw i8, ptr %3, i64 1328
  %61 = tail call i32 @ff_format_io_close(ptr noundef nonnull %0, ptr noundef nonnull %60) #15
  %62 = getelementptr inbounds nuw i8, ptr %3, i64 1336
  %63 = tail call i32 @ff_format_io_close(ptr noundef nonnull %0, ptr noundef nonnull %62) #15
  %64 = getelementptr inbounds nuw i8, ptr %3, i64 1344
  %65 = tail call i32 @ff_format_io_close(ptr noundef nonnull %0, ptr noundef nonnull %64) #15
  br label %66

66:                                               ; preds = %16, %._crit_edge57
  ret void
}